; Function Attrs: nounwind uwtable
define noundef i32 @Abc_NtkSuppSizeTest(ptr noundef readonly captures(none) %0) local_unnamed_addr #0 {
  %2 = alloca %struct.timespec, align 8
  %3 = alloca %struct.timespec, align 8
  call void @llvm.lifetime.start.p0(i64 16, ptr nonnull %3) #23
  %4 = call i32 @clock_gettime(i32 noundef 1, ptr noundef nonnull %3) #23
  %5 = icmp slt i32 %4, 0
  br i1 %5, label %Abc_Clock.exit, label %6

6:                                                ; preds = %1
  %7 = load i64, ptr %3, align 8, !tbaa !137
  %.neg19 = mul i64 %7, -1000000
  %8 = getelementptr inbounds nuw i8, ptr %3, i64 8
  %9 = load i64, ptr %8, align 8, !tbaa !139
  %.neg = sdiv i64 %9, -1000
  %.neg20 = add i64 %.neg, %.neg19
  br label %Abc_Clock.exit

Abc_Clock.exit:                                   ; preds = %1, %6
  %.0.i.neg = phi i64 [ %.neg20, %6 ], [ 1, %1 ]
  call void @llvm.lifetime.end.p0(i64 16, ptr nonnull %3) #23
  %10 = getelementptr inbounds nuw i8, ptr %0, i64 32
  %11 = load ptr, ptr %10, align 8, !tbaa !35
  %12 = getelementptr i8, ptr %11, i64 4
  %.val21 = load i32, ptr %12, align 4, !tbaa !41
  %13 = icmp sgt i32 %.val21, 0
  br i1 %13, label %.lr.ph, label %.critedge

.lr.ph:                                           ; preds = %Abc_Clock.exit, %47
  %14 = phi ptr [ %48, %47 ], [ %11, %Abc_Clock.exit ]
  %indvars.iv = phi i64 [ %indvars.iv.next, %47 ], [ 0, %Abc_Clock.exit ]
  %.01222 = phi i32 [ %.1, %47 ], [ 0, %Abc_Clock.exit ]
  %15 = getelementptr i8, ptr %14, i64 8
  %.val14.val = load ptr, ptr %15, align 8, !tbaa !36
  %16 = getelementptr inbounds nuw ptr, ptr %.val14.val, i64 %indvars.iv
  %17 = load ptr, ptr %16, align 8, !tbaa !38
  %18 = icmp eq ptr %17, null
  br i1 %18, label %47, label %19

19:                                               ; preds = %.lr.ph
  %20 = getelementptr i8, ptr %17, i64 20
  %.val15 = load i32, ptr %20, align 4
  %21 = and i32 %.val15, 15
  %.not = icmp eq i32 %21, 7
  br i1 %.not, label %22, label %47

22:                                               ; preds = %19
  %.val.i = load ptr, ptr %17, align 8, !tbaa !3
  %23 = getelementptr inbounds nuw i8, ptr %.val.i, i64 232
  %24 = load ptr, ptr %23, align 8, !tbaa !43
  %.not.i.i = icmp eq ptr %24, null
  br i1 %.not.i.i, label %25, label %Abc_ObjSuppSize.exit

25:                                               ; preds = %22
  %26 = getelementptr inbounds nuw i8, ptr %.val.i, i64 224
  %27 = getelementptr i8, ptr %.val.i, i64 32
  %.val.i.i = load ptr, ptr %27, align 8, !tbaa !35
  %28 = getelementptr i8, ptr %.val.i.i, i64 4
  %.val.val.i.i = load i32, ptr %28, align 4, !tbaa !41
  %29 = add nsw i32 %.val.val.i.i, 500
  %30 = load i32, ptr %26, align 8, !tbaa !29
  %.not.i.i.i.i = icmp slt i32 %30, %29
  br i1 %.not.i.i.i.i, label %31, label %Vec_IntGrow.exit.i.i.i

31:                                               ; preds = %25
  %32 = sext i32 %29 to i64
  %33 = shl nsw i64 %32, 2
  %34 = call noalias ptr @malloc(i64 noundef %33) #22
  store ptr %34, ptr %23, align 8, !tbaa !30
  store i32 %29, ptr %26, align 8, !tbaa !29
  br label %Vec_IntGrow.exit.i.i.i

Vec_IntGrow.exit.i.i.i:                           ; preds = %31, %25
  %35 = phi ptr [ %34, %31 ], [ null, %25 ]
  %36 = icmp sgt i32 %.val.val.i.i, -500
  br i1 %36, label %.lr.ph.i.i.i, label %Vec_IntFill.exit.i.i

.lr.ph.i.i.i:                                     ; preds = %Vec_IntGrow.exit.i.i.i
  %37 = zext nneg i32 %29 to i64
  %38 = shl nuw nsw i64 %37, 2
  call void @llvm.memset.p0.i64(ptr align 4 %35, i8 0, i64 %38, i1 false), !tbaa !31
  br label %Vec_IntFill.exit.i.i

Vec_IntFill.exit.i.i:                             ; preds = %.lr.ph.i.i.i, %Vec_IntGrow.exit.i.i.i
  %39 = getelementptr inbounds nuw i8, ptr %.val.i, i64 228
  store i32 %29, ptr %39, align 4, !tbaa !28
  br label %Abc_ObjSuppSize.exit

Abc_ObjSuppSize.exit:                             ; preds = %22, %Vec_IntFill.exit.i.i
  %40 = getelementptr inbounds nuw i8, ptr %.val.i, i64 216
  %41 = load i32, ptr %40, align 8, !tbaa !14
  %42 = add nsw i32 %41, 1
  store i32 %42, ptr %40, align 8, !tbaa !14
  %43 = call i32 @Abc_ObjSuppSize_rec(ptr noundef nonnull readonly %17)
  %44 = icmp slt i32 %43, 17
  %45 = zext i1 %44 to i32
  %46 = add nsw i32 %.01222, %45
  %.pre = load ptr, ptr %10, align 8, !tbaa !35
  br label %47

47:                                               ; preds = %.lr.ph, %Abc_ObjSuppSize.exit, %19
  %48 = phi ptr [ %14, %.lr.ph ], [ %.pre, %Abc_ObjSuppSize.exit ], [ %14, %19 ]
  %.1 = phi i32 [ %.01222, %.lr.ph ], [ %46, %Abc_ObjSuppSize.exit ], [ %.01222, %19 ]
  %indvars.iv.next = add nuw nsw i64 %indvars.iv, 1
  %49 = getelementptr i8, ptr %48, i64 4
  %.val = load i32, ptr %49, align 4, !tbaa !41
  %50 = sext i32 %.val to i64
  %51 = icmp slt i64 %indvars.iv.next, %50
  br i1 %51, label %.lr.ph, label %.critedge, !llvm.loop !140

.critedge:                                        ; preds = %47, %Abc_Clock.exit
  %.012.lcssa = phi i32 [ 0, %Abc_Clock.exit ], [ %.1, %47 ]
  %52 = getelementptr i8, ptr %0, i64 124
  %.val16 = load i32, ptr %52, align 4, !tbaa !31
  %53 = call i32 (ptr, ...) @printf(ptr noundef nonnull dereferenceable(1) @.str, i32 noundef %.012.lcssa, i32 noundef %.val16)
  call void @llvm.lifetime.start.p0(i64 16, ptr nonnull %2) #23
  %54 = call i32 @clock_gettime(i32 noundef 1, ptr noundef nonnull %2) #23
  %55 = icmp slt i32 %54, 0
  br i1 %55, label %Abc_Clock.exit18, label %56

56:                                               ; preds = %.critedge
  %57 = load i64, ptr %2, align 8, !tbaa !137
  %58 = mul nsw i64 %57, 1000000
  %59 = getelementptr inbounds nuw i8, ptr %2, i64 8
  %60 = load i64, ptr %59, align 8, !tbaa !139
  %61 = sdiv i64 %60, 1000
  %62 = add nsw i64 %61, %58
  br label %Abc_Clock.exit18

Abc_Clock.exit18:                                 ; preds = %.critedge, %56
  %.0.i17 = phi i64 [ %62, %56 ], [ -1, %.critedge ]
  call void @llvm.lifetime.end.p0(i64 16, ptr nonnull %2) #23
  %63 = add i64 %.0.i17, %.0.i.neg
  call void (i32, ptr, ...) @Abc_Print(i32 poison, ptr noundef nonnull @.str.15, ptr noundef nonnull @.str.1)
  %64 = sitofp i64 %63 to double
  %65 = fdiv double %64, 1.000000e+06
  call void (i32, ptr, ...) @Abc_Print(i32 poison, ptr noundef nonnull @.str.16, double noundef %65)
  ret i32 %.012.lcssa
}